; Function Attrs: nounwind uwtable
define internal noundef nonnull ptr @test_decref_doesnt_leak(ptr readnone captures(none) %0, ptr readnone captures(none) %1) #0 {
  %3 = tail call ptr @PyLong_FromLong(i64 noundef 0) #5
  %4 = load i32, ptr %3, align 8, !tbaa !8
  %.not.i = icmp sgt i32 %4, -1
  br i1 %.not.i, label %5, label %Py_DECREF.exit

5:                                                ; preds = %2
  %6 = add nsw i32 %4, -1
  store i32 %6, ptr %3, align 8, !tbaa !8
  %7 = icmp eq i32 %6, 0
  br i1 %7, label %8, label %Py_DECREF.exit

8:                                                ; preds = %5
  tail call void @_Py_Dealloc(ptr noundef nonnull %3) #5
  br label %Py_DECREF.exit

Py_DECREF.exit:                                   ; preds = %2, %5, %8
  ret ptr @_Py_NoneStruct
}